target datalayout = "e-m:e-p270:32:32-p271:32:32-p272:64:64-i64:64-i128:128-f80:128-n8:16:32:64-S128"
target triple = "x86_64-pc-linux-gnu"

%union.pthread_cond_t = type { %struct.__pthread_cond_s }
%struct.__pthread_cond_s = type { %union.__atomic_wide_counter, %union.__atomic_wide_counter, [2 x i32], [2 x i32], i32, i32, [2 x i32] }
%union.__atomic_wide_counter = type { i64 }
%union.pthread_mutex_t = type { %struct.__pthread_mutex_s }
%struct.__pthread_mutex_s = type { i32, i32, i32, i32, i32, i16, i16, %struct.__pthread_internal_list }
%struct.__pthread_internal_list = type { ptr, ptr }
%struct.stepd_step_rec_t = type { ptr, ptr, i32, %union.pthread_cond_t, %union.pthread_mutex_t, %struct.slurm_step_id_msg, i32, i32, i32, i32, i32, i32, ptr, ptr, i32, i32, ptr, i32, i32, i32, i32, i32, ptr, ptr, ptr, ptr, i32, i32, i64, i64, i16, i32, ptr, ptr, ptr, i32, ptr, i32, ptr, i32, ptr, i16, i32, i32, i32, ptr, i32, ptr, ptr, ptr, ptr, i32, i32, ptr, ptr, i8, i8, i8, i64, i32, ptr, ptr, ptr, ptr, ptr, ptr, ptr, ptr, ptr, ptr, i32, i32, ptr, i8, %union.pthread_cond_t, %union.pthread_mutex_t, i64, ptr, i32, i32, i32, ptr, i64, ptr, ptr, i8, ptr, i16, ptr, ptr, ptr, ptr, ptr, ptr, i64, ptr, i64, ptr, i16, i8, i16, i32, ptr, i16, ptr, ptr, i16, ptr, ptr, ptr, i8 }
%struct.slurm_step_id_msg = type { i64, i32, i32, i32 }
%struct.step_complete_t = type { %union.pthread_cond_t, %union.pthread_mutex_t, i32, i32, i32, ptr, i32, i32, i8, ptr, i32, ptr }
%struct.stepd_step_task_info_t = type { %union.pthread_mutex_t, i32, ptr, i32, i32, i32, ptr, ptr, ptr, i32, i32, i32, i32, i32, i32, ptr, ptr, ptr, i8, i8, i8, i8, i32, i32, ptr }

@.str.41 = private unnamed_addr constant [36 x i8] c"get_exit_code task %u killed by cmd\00", align 1
@.str.42 = private unnamed_addr constant [35 x i8] c"get_exit_code task %u called abort\00", align 1
@.str.43 = private unnamed_addr constant [41 x i8] c"get_exit_code task %u died by signal: %d\00", align 1

; Function Attrs: nounwind uwtable
define internal i32 @_get_exit_code(ptr noundef %0) #0 {
  %2 = alloca i32, align 4
  %3 = alloca ptr, align 8
  %4 = alloca i32, align 4
  %5 = alloca i32, align 4
  %6 = alloca i32, align 4
  store ptr %0, ptr %3, align 8
  call void @llvm.lifetime.start.p0(i64 4, ptr %4) #12
  call void @llvm.lifetime.start.p0(i64 4, ptr %5) #12
  store i32 -2, ptr %5, align 4
  %7 = load ptr, ptr %3, align 8
  %8 = getelementptr inbounds nuw %struct.stepd_step_rec_t, ptr %7, i32 0, i32 5
  %9 = getelementptr inbounds nuw %struct.slurm_step_id_msg, ptr %8, i32 0, i32 3
  %10 = load i32, ptr %9, align 8
  %11 = icmp eq i32 %10, -4
  br i1 %11, label %12, label %13

12:                                               ; preds = %1
  store i32 0, ptr %2, align 4
  store i32 1, ptr %6, align 4
  br label %199

13:                                               ; preds = %1
  store i32 0, ptr %4, align 4
  br label %14

14:                                               ; preds = %176, %13
  %15 = load i32, ptr %4, align 4
  %16 = load ptr, ptr %3, align 8
  %17 = getelementptr inbounds nuw %struct.stepd_step_rec_t, ptr %16, i32 0, i32 11
  %18 = load i32, ptr %17, align 4
  %19 = icmp ult i32 %15, %18
  br i1 %19, label %20, label %179

20:                                               ; preds = %14
  %21 = load ptr, ptr %3, align 8
  %22 = getelementptr inbounds nuw %struct.stepd_step_rec_t, ptr %21, i32 0, i32 62
  %23 = load ptr, ptr %22, align 8
  %24 = load i32, ptr %4, align 4
  %25 = zext i32 %24 to i64
  %26 = getelementptr inbounds nuw ptr, ptr %23, i64 %25
  %27 = load ptr, ptr %26, align 8
  %28 = getelementptr inbounds nuw %struct.stepd_step_task_info_t, ptr %27, i32 0, i32 18
  %29 = load i8, ptr %28, align 8, !range !8, !noundef !9
  %30 = trunc i8 %29 to i1
  br i1 %30, label %31, label %43

31:                                               ; preds = %20
  br label %32

32:                                               ; preds = %31
  br label %33

33:                                               ; preds = %32
  %34 = call i32 @get_log_level()
  %35 = icmp sge i32 %34, 5
  br i1 %35, label %36, label %38

36:                                               ; preds = %33
  %37 = load i32, ptr %4, align 4
  call void (i32, ptr, ...) @log_var(i32 noundef 5, ptr noundef @.str.41, i32 noundef %37)
  br label %38

38:                                               ; preds = %36, %33
  br label %39

39:                                               ; preds = %38
  br label %40

40:                                               ; preds = %39
  br label %41

41:                                               ; preds = %40
  br label %42

42:                                               ; preds = %41
  br label %176

43:                                               ; preds = %20
  %44 = load ptr, ptr %3, align 8
  %45 = getelementptr inbounds nuw %struct.stepd_step_rec_t, ptr %44, i32 0, i32 62
  %46 = load ptr, ptr %45, align 8
  %47 = load i32, ptr %4, align 4
  %48 = zext i32 %47 to i64
  %49 = getelementptr inbounds nuw ptr, ptr %46, i64 %48
  %50 = load ptr, ptr %49, align 8
  %51 = getelementptr inbounds nuw %struct.stepd_step_task_info_t, ptr %50, i32 0, i32 19
  %52 = load i8, ptr %51, align 1, !range !8, !noundef !9
  %53 = trunc i8 %52 to i1
  br i1 %53, label %54, label %75

54:                                               ; preds = %43
  %55 = load ptr, ptr %3, align 8
  %56 = getelementptr inbounds nuw %struct.stepd_step_rec_t, ptr %55, i32 0, i32 62
  %57 = load ptr, ptr %56, align 8
  %58 = load i32, ptr %4, align 4
  %59 = zext i32 %58 to i64
  %60 = getelementptr inbounds nuw ptr, ptr %57, i64 %59
  %61 = load ptr, ptr %60, align 8
  %62 = getelementptr inbounds nuw %struct.stepd_step_task_info_t, ptr %61, i32 0, i32 22
  %63 = load i32, ptr %62, align 4
  store i32 %63, ptr %5, align 4
  br label %64

64:                                               ; preds = %54
  br label %65

65:                                               ; preds = %64
  %66 = call i32 @get_log_level()
  %67 = icmp sge i32 %66, 5
  br i1 %67, label %68, label %70

68:                                               ; preds = %65
  %69 = load i32, ptr %4, align 4
  call void (i32, ptr, ...) @log_var(i32 noundef 5, ptr noundef @.str.42, i32 noundef %69)
  br label %70

70:                                               ; preds = %68, %65
  br label %71

71:                                               ; preds = %70
  br label %72

72:                                               ; preds = %71
  br label %73

73:                                               ; preds = %72
  br label %74

74:                                               ; preds = %73
  br label %179

75:                                               ; preds = %43
  %76 = load ptr, ptr %3, align 8
  %77 = getelementptr inbounds nuw %struct.stepd_step_rec_t, ptr %76, i32 0, i32 62
  %78 = load ptr, ptr %77, align 8
  %79 = load i32, ptr %4, align 4
  %80 = zext i32 %79 to i64
  %81 = getelementptr inbounds nuw ptr, ptr %78, i64 %80
  %82 = load ptr, ptr %81, align 8
  %83 = getelementptr inbounds nuw %struct.stepd_step_task_info_t, ptr %82, i32 0, i32 22
  %84 = load i32, ptr %83, align 4
  %85 = and i32 %84, 127
  %86 = add nsw i32 %85, 1
  %87 = trunc i32 %86 to i8
  %88 = sext i8 %87 to i32
  %89 = ashr i32 %88, 1
  %90 = icmp sgt i32 %89, 0
  br i1 %90, label %91, label %122

91:                                               ; preds = %75
  br label %92

92:                                               ; preds = %91
  br label %93

93:                                               ; preds = %92
  %94 = call i32 @get_log_level()
  %95 = icmp sge i32 %94, 3
  br i1 %95, label %96, label %108

96:                                               ; preds = %93
  %97 = load i32, ptr %4, align 4
  %98 = load ptr, ptr %3, align 8
  %99 = getelementptr inbounds nuw %struct.stepd_step_rec_t, ptr %98, i32 0, i32 62
  %100 = load ptr, ptr %99, align 8
  %101 = load i32, ptr %4, align 4
  %102 = zext i32 %101 to i64
  %103 = getelementptr inbounds nuw ptr, ptr %100, i64 %102
  %104 = load ptr, ptr %103, align 8
  %105 = getelementptr inbounds nuw %struct.stepd_step_task_info_t, ptr %104, i32 0, i32 22
  %106 = load i32, ptr %105, align 4
  %107 = and i32 %106, 127
  call void (i32, ptr, ...) @log_var(i32 noundef 3, ptr noundef @.str.43, i32 noundef %97, i32 noundef %107)
  br label %108

108:                                              ; preds = %96, %93
  br label %109

109:                                              ; preds = %108
  br label %110

110:                                              ; preds = %109
  br label %111

111:                                              ; preds = %110
  br label %112

112:                                              ; preds = %111
  %113 = load ptr, ptr %3, align 8
  %114 = getelementptr inbounds nuw %struct.stepd_step_rec_t, ptr %113, i32 0, i32 62
  %115 = load ptr, ptr %114, align 8
  %116 = load i32, ptr %4, align 4
  %117 = zext i32 %116 to i64
  %118 = getelementptr inbounds nuw ptr, ptr %115, i64 %117
  %119 = load ptr, ptr %118, align 8
  %120 = getelementptr inbounds nuw %struct.stepd_step_task_info_t, ptr %119, i32 0, i32 22
  %121 = load i32, ptr %120, align 4
  store i32 %121, ptr %5, align 4
  br label %179

122:                                              ; preds = %75
  %123 = load ptr, ptr %3, align 8
  %124 = getelementptr inbounds nuw %struct.stepd_step_rec_t, ptr %123, i32 0, i32 62
  %125 = load ptr, ptr %124, align 8
  %126 = load i32, ptr %4, align 4
  %127 = zext i32 %126 to i64
  %128 = getelementptr inbounds nuw ptr, ptr %125, i64 %127
  %129 = load ptr, ptr %128, align 8
  %130 = getelementptr inbounds nuw %struct.stepd_step_task_info_t, ptr %129, i32 0, i32 22
  %131 = load i32, ptr %130, align 4
  %132 = and i32 %131, 255
  %133 = icmp eq i32 %132, 253
  br i1 %133, label %134, label %144

134:                                              ; preds = %122
  %135 = load ptr, ptr %3, align 8
  %136 = getelementptr inbounds nuw %struct.stepd_step_rec_t, ptr %135, i32 0, i32 62
  %137 = load ptr, ptr %136, align 8
  %138 = load i32, ptr %4, align 4
  %139 = zext i32 %138 to i64
  %140 = getelementptr inbounds nuw ptr, ptr %137, i64 %139
  %141 = load ptr, ptr %140, align 8
  %142 = getelementptr inbounds nuw %struct.stepd_step_task_info_t, ptr %141, i32 0, i32 22
  %143 = load i32, ptr %142, align 4
  store i32 %143, ptr %5, align 4
  br label %175

144:                                              ; preds = %122
  %145 = load i32, ptr %5, align 4
  %146 = and i32 %145, 255
  %147 = icmp ne i32 %146, 253
  br i1 %147, label %148, label %174

148:                                              ; preds = %144
  %149 = load i32, ptr getelementptr inbounds nuw (%struct.step_complete_t, ptr @step_complete, i32 0, i32 10), align 8
  %150 = load ptr, ptr %3, align 8
  %151 = getelementptr inbounds nuw %struct.stepd_step_rec_t, ptr %150, i32 0, i32 62
  %152 = load ptr, ptr %151, align 8
  %153 = load i32, ptr %4, align 4
  %154 = zext i32 %153 to i64
  %155 = getelementptr inbounds nuw ptr, ptr %152, i64 %154
  %156 = load ptr, ptr %155, align 8
  %157 = getelementptr inbounds nuw %struct.stepd_step_task_info_t, ptr %156, i32 0, i32 22
  %158 = load i32, ptr %157, align 4
  %159 = icmp sgt i32 %149, %158
  br i1 %159, label %160, label %162

160:                                              ; preds = %148
  %161 = load i32, ptr getelementptr inbounds nuw (%struct.step_complete_t, ptr @step_complete, i32 0, i32 10), align 8
  br label %172

162:                                              ; preds = %148
  %163 = load ptr, ptr %3, align 8
  %164 = getelementptr inbounds nuw %struct.stepd_step_rec_t, ptr %163, i32 0, i32 62
  %165 = load ptr, ptr %164, align 8
  %166 = load i32, ptr %4, align 4
  %167 = zext i32 %166 to i64
  %168 = getelementptr inbounds nuw ptr, ptr %165, i64 %167
  %169 = load ptr, ptr %168, align 8
  %170 = getelementptr inbounds nuw %struct.stepd_step_task_info_t, ptr %169, i32 0, i32 22
  %171 = load i32, ptr %170, align 4
  br label %172

172:                                              ; preds = %162, %160
  %173 = phi i32 [ %161, %160 ], [ %171, %162 ]
  store i32 %173, ptr %5, align 4
  br label %174

174:                                              ; preds = %172, %144
  br label %175

175:                                              ; preds = %174, %134
  br label %176

176:                                              ; preds = %175, %42
  %177 = load i32, ptr %4, align 4
  %178 = add i32 %177, 1
  store i32 %178, ptr %4, align 4
  br label %14, !llvm.loop !10

179:                                              ; preds = %112, %74, %14
  %180 = load i32, ptr %5, align 4
  %181 = icmp eq i32 %180, -2
  br i1 %181, label %182, label %197

182:                                              ; preds = %179
  %183 = load ptr, ptr %3, align 8
  %184 = getelementptr inbounds nuw %struct.stepd_step_rec_t, ptr %183, i32 0, i32 62
  %185 = load ptr, ptr %184, align 8
  %186 = getelementptr inbounds ptr, ptr %185, i64 0
  %187 = load ptr, ptr %186, align 8
  %188 = icmp ne ptr %187, null
  br i1 %188, label %189, label %197

189:                                              ; preds = %182
  %190 = load ptr, ptr %3, align 8
  %191 = getelementptr inbounds nuw %struct.stepd_step_rec_t, ptr %190, i32 0, i32 62
  %192 = load ptr, ptr %191, align 8
  %193 = getelementptr inbounds ptr, ptr %192, i64 0
  %194 = load ptr, ptr %193, align 8
  %195 = getelementptr inbounds nuw %struct.stepd_step_task_info_t, ptr %194, i32 0, i32 22
  %196 = load i32, ptr %195, align 4
  store i32 %196, ptr %5, align 4
  br label %197

197:                                              ; preds = %189, %182, %179
  %198 = load i32, ptr %5, align 4
  store i32 %198, ptr %2, align 4
  store i32 1, ptr %6, align 4
  br label %199

199:                                              ; preds = %197, %12
  call void @llvm.lifetime.end.p0(i64 4, ptr %5) #12
  call void @llvm.lifetime.end.p0(i64 4, ptr %4) #12
  %200 = load i32, ptr %2, align 4
  ret i32 %200
}