; Function Attrs: nounwind uwtable
define internal fastcc i32 @_get_exit_code(ptr noundef readonly captures(none) %0) unnamed_addr #0 {
  %2 = getelementptr inbounds nuw i8, ptr %0, i64 128
  %3 = load i32, ptr %2, align 8
  %4 = icmp eq i32 %3, -4
  br i1 %4, label %70, label %.preheader

.preheader:                                       ; preds = %1
  %5 = getelementptr inbounds nuw i8, ptr %0, i64 156
  %6 = load i32, ptr %5, align 4
  %.not49 = icmp eq i32 %6, 0
  br i1 %.not49, label %.loopexit.thread, label %.lr.ph

.lr.ph:                                           ; preds = %.preheader
  %7 = getelementptr inbounds nuw i8, ptr %0, i64 480
  br label %8

8:                                                ; preds = %.lr.ph, %59
  %indvars.iv = phi i64 [ 0, %.lr.ph ], [ %indvars.iv.next, %59 ]
  %.048 = phi i32 [ -2, %.lr.ph ], [ %.2, %59 ]
  %9 = load ptr, ptr %7, align 8
  %10 = getelementptr inbounds nuw ptr, ptr %9, i64 %indvars.iv
  %11 = load ptr, ptr %10, align 8
  %12 = getelementptr inbounds nuw i8, ptr %11, i64 144
  %13 = load i8, ptr %12, align 8, !range !8, !noundef !9
  %14 = trunc nuw i8 %13 to i1
  br i1 %14, label %15, label %20

15:                                               ; preds = %8
  %16 = tail call i32 @get_log_level() #17
  %17 = icmp sgt i32 %16, 4
  br i1 %17, label %18, label %59

18:                                               ; preds = %15
  %19 = trunc nuw i64 %indvars.iv to i32
  tail call void (i32, ptr, ...) @log_var(i32 noundef 5, ptr noundef nonnull @.str.41, i32 noundef %19) #17
  br label %59

20:                                               ; preds = %8
  %21 = getelementptr inbounds nuw i8, ptr %11, i64 145
  %22 = load i8, ptr %21, align 1, !range !8, !noundef !9
  %23 = trunc nuw i8 %22 to i1
  %24 = getelementptr inbounds nuw i8, ptr %11, i64 148
  %25 = load i32, ptr %24, align 4
  br i1 %23, label %26, label %31

26:                                               ; preds = %20
  %27 = tail call i32 @get_log_level() #17
  %28 = icmp sgt i32 %27, 4
  br i1 %28, label %29, label %.loopexit

29:                                               ; preds = %26
  %30 = trunc nuw i64 %indvars.iv to i32
  tail call void (i32, ptr, ...) @log_var(i32 noundef 5, ptr noundef nonnull @.str.42, i32 noundef %30) #17
  br label %.loopexit

31:                                               ; preds = %20
  %32 = shl i32 %25, 24
  %33 = and i32 %32, 2130706432
  %sext = add nuw i32 %33, 16777216
  %34 = icmp sgt i32 %sext, 33554431
  br i1 %34, label %35, label %52

35:                                               ; preds = %31
  %36 = tail call i32 @get_log_level() #17
  %37 = icmp sgt i32 %36, 2
  br i1 %37, label %38, label %46

38:                                               ; preds = %35
  %39 = trunc nuw i64 %indvars.iv to i32
  %40 = load ptr, ptr %7, align 8
  %41 = getelementptr inbounds nuw ptr, ptr %40, i64 %indvars.iv
  %42 = load ptr, ptr %41, align 8
  %43 = getelementptr inbounds nuw i8, ptr %42, i64 148
  %44 = load i32, ptr %43, align 4
  %45 = and i32 %44, 127
  tail call void (i32, ptr, ...) @log_var(i32 noundef 3, ptr noundef nonnull @.str.43, i32 noundef %39, i32 noundef %45) #17
  br label %46

46:                                               ; preds = %38, %35
  %47 = load ptr, ptr %7, align 8
  %48 = getelementptr inbounds nuw ptr, ptr %47, i64 %indvars.iv
  %49 = load ptr, ptr %48, align 8
  %50 = getelementptr inbounds nuw i8, ptr %49, i64 148
  %51 = load i32, ptr %50, align 4
  br label %.loopexit

52:                                               ; preds = %31
  %53 = and i32 %25, 255
  %54 = icmp eq i32 %53, 253
  br i1 %54, label %59, label %55

55:                                               ; preds = %52
  %56 = and i32 %.048, 255
  %.not = icmp eq i32 %56, 253
  br i1 %.not, label %59, label %57

57:                                               ; preds = %55
  %58 = load i32, ptr getelementptr inbounds nuw (i8, ptr @step_complete, i64 136), align 8
  %. = tail call i32 @llvm.smax.i32(i32 %58, i32 %25)
  br label %59

59:                                               ; preds = %52, %57, %55, %15, %18
  %.2 = phi i32 [ %.048, %18 ], [ %.048, %15 ], [ %., %57 ], [ %.048, %55 ], [ %25, %52 ]
  %indvars.iv.next = add nuw nsw i64 %indvars.iv, 1
  %60 = load i32, ptr %5, align 4
  %61 = zext i32 %60 to i64
  %62 = icmp samesign ult i64 %indvars.iv.next, %61
  br i1 %62, label %8, label %.loopexit, !llvm.loop !13

.loopexit:                                        ; preds = %59, %26, %29, %46
  %.1 = phi i32 [ %25, %29 ], [ %25, %26 ], [ %51, %46 ], [ %.2, %59 ]
  %63 = icmp eq i32 %.1, -2
  br i1 %63, label %.loopexit.thread, label %70

.loopexit.thread:                                 ; preds = %.preheader, %.loopexit
  %64 = getelementptr inbounds nuw i8, ptr %0, i64 480
  %65 = load ptr, ptr %64, align 8
  %66 = load ptr, ptr %65, align 8
  %.not37 = icmp eq ptr %66, null
  br i1 %.not37, label %70, label %67

67:                                               ; preds = %.loopexit.thread
  %68 = getelementptr inbounds nuw i8, ptr %66, i64 148
  %69 = load i32, ptr %68, align 4
  br label %70

70:                                               ; preds = %.loopexit, %.loopexit.thread, %67, %1
  %.033 = phi i32 [ 0, %1 ], [ %69, %67 ], [ -2, %.loopexit.thread ], [ %.1, %.loopexit ]
  ret i32 %.033
}